; Function Attrs: null_pointer_is_valid sspstrong uwtable
define hidden i32 @dssetup_dissect_struct_DsRolePrimaryDomInfoBasic(ptr noundef %0, i32 noundef %1, ptr noundef %2, ptr noundef %3, ptr noundef %4, ptr noundef %5, i32 noundef %6, i32 %7) local_unnamed_addr #0 {
  %9 = alloca i32, align 4
  %10 = getelementptr inbounds nuw i8, ptr %4, i64 64
  %11 = load ptr, ptr %10, align 8
  %12 = getelementptr inbounds nuw i8, ptr %11, i64 96
  %13 = load i32, ptr %12, align 8
  %14 = and i32 %13, 1
  %.not = icmp eq i32 %14, 0
  %15 = getelementptr inbounds nuw i8, ptr %4, i64 25
  %16 = load i8, ptr %15, align 1, !range !6, !noundef !7
  %17 = trunc nuw i8 %16 to i1
  br i1 %.not, label %23, label %18

18:                                               ; preds = %8
  %19 = and i32 %1, 7
  %.not65 = icmp eq i32 %19, 0
  %or.cond = or i1 %.not65, %17
  br i1 %or.cond, label %28, label %20

20:                                               ; preds = %18
  %21 = and i32 %1, -8
  %22 = add i32 %21, 8
  br label %28

23:                                               ; preds = %8
  %24 = and i32 %1, 3
  %.not64 = icmp eq i32 %24, 0
  %or.cond69 = or i1 %.not64, %17
  br i1 %or.cond69, label %28, label %25

25:                                               ; preds = %23
  %26 = and i32 %1, -4
  %27 = add i32 %26, 4
  br label %28

28:                                               ; preds = %23, %25, %18, %20
  %.0 = phi i32 [ %1, %18 ], [ %22, %20 ], [ %1, %23 ], [ %27, %25 ]
  %.not66 = icmp eq ptr %3, null
  br i1 %.not66, label %33, label %29

29:                                               ; preds = %28
  %30 = tail call ptr @proto_tree_add_item(ptr noundef nonnull %3, i32 noundef %6, ptr noundef %0, i32 noundef %.0, i32 noundef -1, i32 noundef 0)
  %31 = load i32, ptr @ett_dssetup_dssetup_DsRolePrimaryDomInfoBasic, align 4
  %32 = tail call ptr @proto_item_add_subtree(ptr noundef %30, i32 noundef %31)
  br label %33

33:                                               ; preds = %29, %28
  %.062 = phi ptr [ %30, %29 ], [ null, %28 ]
  %.061 = phi ptr [ %32, %29 ], [ null, %28 ]
  %34 = load i32, ptr @hf_dssetup_dssetup_DsRolePrimaryDomInfoBasic_role, align 4
  call void @llvm.lifetime.start.p0(i64 4, ptr nonnull %9) #4
  store i32 0, ptr %9, align 4
  %35 = call i32 @dissect_ndr_uint1632(ptr noundef %0, i32 noundef %.0, ptr noundef %2, ptr noundef %.061, ptr noundef %4, ptr noundef %5, i32 noundef %34, ptr noundef nonnull %9)
  call void @llvm.lifetime.end.p0(i64 4, ptr nonnull %9) #4
  %36 = load i32, ptr @hf_dssetup_dssetup_DsRolePrimaryDomInfoBasic_flags, align 4
  %37 = call i32 @dssetup_dissect_bitmap_DsRoleFlags(ptr noundef %0, i32 noundef %35, ptr noundef %2, ptr noundef %.061, ptr noundef %4, ptr noundef %5, i32 noundef %36, i32 poison)
  %38 = load i32, ptr @hf_dssetup_dssetup_DsRolePrimaryDomInfoBasic_domain, align 4
  %39 = call i32 @dissect_ndr_embedded_pointer(ptr noundef %0, i32 noundef %37, ptr noundef %2, ptr noundef %.061, ptr noundef %4, ptr noundef %5, ptr noundef nonnull @dssetup_dissect_element_DsRolePrimaryDomInfoBasic_domain_, i32 noundef 2, ptr noundef nonnull @.str.62, i32 noundef %38)
  %40 = load i32, ptr @hf_dssetup_dssetup_DsRolePrimaryDomInfoBasic_dns_domain, align 4
  %41 = call i32 @dissect_ndr_embedded_pointer(ptr noundef %0, i32 noundef %39, ptr noundef %2, ptr noundef %.061, ptr noundef %4, ptr noundef %5, ptr noundef nonnull @dssetup_dissect_element_DsRolePrimaryDomInfoBasic_dns_domain_, i32 noundef 2, ptr noundef nonnull @.str.64, i32 noundef %40)
  %42 = load i32, ptr @hf_dssetup_dssetup_DsRolePrimaryDomInfoBasic_forest, align 4
  %43 = call i32 @dissect_ndr_embedded_pointer(ptr noundef %0, i32 noundef %41, ptr noundef %2, ptr noundef %.061, ptr noundef %4, ptr noundef %5, ptr noundef nonnull @dssetup_dissect_element_DsRolePrimaryDomInfoBasic_forest_, i32 noundef 2, ptr noundef nonnull @.str.65, i32 noundef %42)
  %44 = load i32, ptr @hf_dssetup_dssetup_DsRolePrimaryDomInfoBasic_domain_guid, align 4
  %45 = call i32 @dissect_ndr_uuid_t(ptr noundef %0, i32 noundef %43, ptr noundef %2, ptr noundef %.061, ptr noundef %4, ptr noundef %5, i32 noundef %44, ptr noundef null)
  %46 = sub i32 %45, %.0
  call void @proto_item_set_len(ptr noundef %.062, i32 noundef %46)
  %47 = load ptr, ptr %10, align 8
  %48 = getelementptr inbounds nuw i8, ptr %47, i64 96
  %49 = load i32, ptr %48, align 8
  %50 = and i32 %49, 1
  %.not67 = icmp eq i32 %50, 0
  br i1 %.not67, label %59, label %51

51:                                               ; preds = %33
  %52 = getelementptr inbounds nuw i8, ptr %4, i64 25
  %53 = load i8, ptr %52, align 1, !range !6, !noundef !7
  %54 = trunc nuw i8 %53 to i1
  %55 = and i32 %45, 7
  %.not68 = icmp eq i32 %55, 0
  %or.cond70 = or i1 %.not68, %54
  br i1 %or.cond70, label %59, label %56

56:                                               ; preds = %51
  %57 = and i32 %45, -8
  %58 = add i32 %57, 8
  br label %59

59:                                               ; preds = %56, %51, %33
  %.1 = phi i32 [ %45, %51 ], [ %58, %56 ], [ %45, %33 ]
  ret i32 %.1
}